target datalayout = "e-m:e-p270:32:32-p271:32:32-p272:64:64-i64:64-i128:128-f80:128-n8:16:32:64-S128"
target triple = "x86_64-pc-linux-gnu"

%struct.bio_st = type { ptr, ptr, ptr, i32, i32, i32, i32, i32, i32, ptr, ptr, i64, i64 }
%struct.bio_method_st = type { i32, ptr, ptr, ptr, ptr, ptr, ptr, ptr, ptr, ptr }

@.str = private unnamed_addr constant [120 x i8] c"generated/home/dtcxzyw/WorkSpace/Projects/compilers/llvm-opt-benchmark/bench/libquic/libquic/boringssl/crypto/bio/bio.c\00", align 1

; Function Attrs: nounwind uwtable
define hidden i64 @BIO_callback_ctrl(ptr noundef %0, i32 noundef %1, ptr noundef %2) #0 {
  %4 = alloca i64, align 8
  %5 = alloca ptr, align 8
  %6 = alloca i32, align 4
  %7 = alloca ptr, align 8
  %8 = alloca i64, align 8
  %9 = alloca ptr, align 8
  %10 = alloca i32, align 4
  store ptr %0, ptr %5, align 8, !tbaa !11
  store i32 %1, ptr %6, align 4, !tbaa !23
  store ptr %2, ptr %7, align 8, !tbaa !28
  call void @llvm.lifetime.start.p0(i64 8, ptr %8) #9
  call void @llvm.lifetime.start.p0(i64 8, ptr %9) #9
  %11 = load ptr, ptr %5, align 8, !tbaa !11
  %12 = icmp eq ptr %11, null
  br i1 %12, label %13, label %14

13:                                               ; preds = %3
  store i64 0, ptr %4, align 8
  store i32 1, ptr %10, align 4
  br label %63

14:                                               ; preds = %3
  %15 = load ptr, ptr %5, align 8, !tbaa !11
  %16 = getelementptr inbounds nuw %struct.bio_st, ptr %15, i32 0, i32 0
  %17 = load ptr, ptr %16, align 8, !tbaa !13
  %18 = icmp eq ptr %17, null
  br i1 %18, label %26, label %19

19:                                               ; preds = %14
  %20 = load ptr, ptr %5, align 8, !tbaa !11
  %21 = getelementptr inbounds nuw %struct.bio_st, ptr %20, i32 0, i32 0
  %22 = load ptr, ptr %21, align 8, !tbaa !13
  %23 = getelementptr inbounds nuw %struct.bio_method_st, ptr %22, i32 0, i32 9
  %24 = load ptr, ptr %23, align 8, !tbaa !38
  %25 = icmp eq ptr %24, null
  br i1 %25, label %26, label %27

26:                                               ; preds = %19, %14
  call void @ERR_put_error(i32 noundef 17, i32 noundef 0, i32 noundef 115, ptr noundef @.str, i32 noundef 326)
  store i64 0, ptr %4, align 8
  store i32 1, ptr %10, align 4
  br label %63

27:                                               ; preds = %19
  %28 = load ptr, ptr %5, align 8, !tbaa !11
  %29 = getelementptr inbounds nuw %struct.bio_st, ptr %28, i32 0, i32 1
  %30 = load ptr, ptr %29, align 8, !tbaa !22
  store ptr %30, ptr %9, align 8, !tbaa !28
  %31 = load ptr, ptr %9, align 8, !tbaa !28
  %32 = icmp ne ptr %31, null
  br i1 %32, label %33, label %43

33:                                               ; preds = %27
  %34 = load ptr, ptr %9, align 8, !tbaa !28
  %35 = load ptr, ptr %5, align 8, !tbaa !11
  %36 = load i32, ptr %6, align 4, !tbaa !23
  %37 = call i64 %34(ptr noundef %35, i32 noundef 6, ptr noundef %7, i32 noundef %36, i64 noundef 0, i64 noundef 1)
  store i64 %37, ptr %8, align 8, !tbaa !29
  %38 = load i64, ptr %8, align 8, !tbaa !29
  %39 = icmp sle i64 %38, 0
  br i1 %39, label %40, label %42

40:                                               ; preds = %33
  %41 = load i64, ptr %8, align 8, !tbaa !29
  store i64 %41, ptr %4, align 8
  store i32 1, ptr %10, align 4
  br label %63

42:                                               ; preds = %33
  br label %43

43:                                               ; preds = %42, %27
  %44 = load ptr, ptr %5, align 8, !tbaa !11
  %45 = getelementptr inbounds nuw %struct.bio_st, ptr %44, i32 0, i32 0
  %46 = load ptr, ptr %45, align 8, !tbaa !13
  %47 = getelementptr inbounds nuw %struct.bio_method_st, ptr %46, i32 0, i32 9
  %48 = load ptr, ptr %47, align 8, !tbaa !38
  %49 = load ptr, ptr %5, align 8, !tbaa !11
  %50 = load i32, ptr %6, align 4, !tbaa !23
  %51 = load ptr, ptr %7, align 8, !tbaa !28
  %52 = call i64 %48(ptr noundef %49, i32 noundef %50, ptr noundef %51)
  store i64 %52, ptr %8, align 8, !tbaa !29
  %53 = load ptr, ptr %9, align 8, !tbaa !28
  %54 = icmp ne ptr %53, null
  br i1 %54, label %55, label %61

55:                                               ; preds = %43
  %56 = load ptr, ptr %9, align 8, !tbaa !28
  %57 = load ptr, ptr %5, align 8, !tbaa !11
  %58 = load i32, ptr %6, align 4, !tbaa !23
  %59 = load i64, ptr %8, align 8, !tbaa !29
  %60 = call i64 %56(ptr noundef %57, i32 noundef 134, ptr noundef %7, i32 noundef %58, i64 noundef 0, i64 noundef %59)
  store i64 %60, ptr %8, align 8, !tbaa !29
  br label %61

61:                                               ; preds = %55, %43
  %62 = load i64, ptr %8, align 8, !tbaa !29
  store i64 %62, ptr %4, align 8
  store i32 1, ptr %10, align 4
  br label %63

63:                                               ; preds = %61, %40, %26, %13
  call void @llvm.lifetime.end.p0(i64 8, ptr %9) #9
  call void @llvm.lifetime.end.p0(i64 8, ptr %8) #9
  %64 = load i64, ptr %4, align 8
  ret i64 %64
}