; Function Attrs: nounwind uwtable
define hidden i64 @BIO_callback_ctrl(ptr noundef %0, i32 noundef %1, ptr noundef %2) local_unnamed_addr #0 {
  %4 = alloca ptr, align 8
  store ptr %2, ptr %4, align 8, !tbaa !25
  %5 = icmp eq ptr %0, null
  br i1 %5, label %24, label %6

6:                                                ; preds = %3
  %7 = load ptr, ptr %0, align 8, !tbaa !6
  %8 = icmp eq ptr %7, null
  br i1 %8, label %13, label %9

9:                                                ; preds = %6
  %10 = getelementptr inbounds nuw i8, ptr %7, i64 72
  %11 = load ptr, ptr %10, align 8, !tbaa !34
  %12 = icmp eq ptr %11, null
  br i1 %12, label %13, label %14

13:                                               ; preds = %9, %6
  tail call void @ERR_put_error(i32 noundef 17, i32 noundef 0, i32 noundef 115, ptr noundef nonnull @.str, i32 noundef 326) #18
  br label %24

14:                                               ; preds = %9
  %15 = getelementptr inbounds nuw i8, ptr %0, i64 8
  %16 = load ptr, ptr %15, align 8, !tbaa !20
  %.not = icmp eq ptr %16, null
  br i1 %.not, label %.thread, label %18

.thread:                                          ; preds = %14
  %17 = tail call i64 %11(ptr noundef nonnull %0, i32 noundef %1, ptr noundef %2) #18
  br label %24

18:                                               ; preds = %14
  %19 = call i64 %16(ptr noundef nonnull %0, i32 noundef 6, ptr noundef nonnull %4, i32 noundef %1, i64 noundef 0, i64 noundef 1) #18
  %20 = icmp slt i64 %19, 1
  br i1 %20, label %24, label %21

21:                                               ; preds = %18
  %.pre = load ptr, ptr %0, align 8, !tbaa !6
  %.phi.trans.insert = getelementptr inbounds nuw i8, ptr %.pre, i64 72
  %.pre24 = load ptr, ptr %.phi.trans.insert, align 8, !tbaa !34
  %.pre25 = load ptr, ptr %4, align 8, !tbaa !25
  %22 = call i64 %.pre24(ptr noundef nonnull %0, i32 noundef %1, ptr noundef %.pre25) #18
  %23 = call i64 %16(ptr noundef nonnull %0, i32 noundef 134, ptr noundef nonnull %4, i32 noundef %1, i64 noundef 0, i64 noundef %22) #18
  br label %24

24:                                               ; preds = %.thread, %21, %18, %3, %13
  %.0 = phi i64 [ 0, %13 ], [ 0, %3 ], [ %19, %18 ], [ %23, %21 ], [ %17, %.thread ]
  ret i64 %.0
}